target datalayout = "e-m:e-p270:32:32-p271:32:32-p272:64:64-i64:64-i128:128-f80:128-n8:16:32:64-S128"
target triple = "x86_64-unknown-linux-gnu"

%"class.std::__cxx11::basic_string" = type { %"struct.std::__cxx11::basic_string<char>::_Alloc_hider", i64, %union.anon }
%"struct.std::__cxx11::basic_string<char>::_Alloc_hider" = type { ptr }
%union.anon = type { i64, [8 x i8] }
%"class.std::basic_string_view" = type { i64, ptr }
%"class.google::protobuf::internal::SymbolBase" = type { i8 }
%"class.absl::lts_20230802::log_internal::NullStream" = type { i8 }
%"class.google::protobuf::EnumDescriptor" = type { %"class.google::protobuf::internal::SymbolBase", i8, i16, i32, ptr, ptr, ptr, ptr, ptr, ptr, ptr, i32, i32, ptr, ptr }
%"class.google::protobuf::Descriptor" = type { %"class.google::protobuf::internal::SymbolBase", i8, i16, i32, ptr, ptr, ptr, ptr, ptr, ptr, ptr, ptr, ptr, ptr, ptr, ptr, ptr, ptr, i32, i32, i32, i32, i32, i32, i32, i32 }

; Function Attrs: mustprogress nounwind uwtable
define linkonce_odr hidden noundef nonnull align 1 dereferenceable(1) ptr @_ZN4absl12lts_2023080212log_internal10NullStream14InternalStreamEv(ptr noundef nonnull align 1 dereferenceable(1) %this) #5 comdat align 2 {
entry:
  %this.addr = alloca ptr, align 8
  store ptr %this, ptr %this.addr, align 8
  %this1 = load ptr, ptr %this.addr, align 8
  ret ptr %this1
}

; Function Attrs: mustprogress nounwind uwtable
define linkonce_odr hidden noundef nonnull align 8 dereferenceable(32) ptr @_ZNK6google8protobuf14EnumDescriptor4nameB5cxx11Ev(ptr noundef nonnull align 8 dereferenceable(88) %this) #5 comdat align 2 {
entry:
  %this.addr = alloca ptr, align 8
  store ptr %this, ptr %this.addr, align 8
  %this1 = load ptr, ptr %this.addr, align 8
  %all_names_ = getelementptr inbounds %"class.google::protobuf::EnumDescriptor", ptr %this1, i32 0, i32 4
  %0 = load ptr, ptr %all_names_, align 8
  %arrayidx = getelementptr inbounds %"class.std::__cxx11::basic_string", ptr %0, i64 0
  ret ptr %arrayidx
}

; Function Attrs: mustprogress nounwind uwtable
define linkonce_odr hidden noundef ptr @_ZNK6google8protobuf10Descriptor9enum_typeEi(ptr noundef nonnull align 8 dereferenceable(152) %this, i32 noundef %index) #5 comdat align 2 {
entry:
  %this.addr = alloca ptr, align 8
  %index.addr = alloca i32, align 4
  %ref.tmp = alloca %"class.absl::lts_20230802::log_internal::NullStream", align 1
  %ref.tmp4 = alloca %"class.absl::lts_20230802::log_internal::NullStream", align 1
  store ptr %this, ptr %this.addr, align 8
  store i32 %index, ptr %index.addr, align 4
  %this1 = load ptr, ptr %this.addr, align 8
  br label %while.cond

while.cond:                                       ; preds = %while.body, %entry
  br i1 false, label %while.body, label %while.end

while.body:                                       ; preds = %while.cond
  %call = call noundef nonnull align 1 dereferenceable(1) ptr @_ZN4absl12lts_2023080212log_internal10NullStream14InternalStreamEv(ptr noundef nonnull align 1 dereferenceable(1) %ref.tmp)
  br label %while.cond, !llvm.loop !19

while.end:                                        ; preds = %while.cond
  br label %while.cond2

while.cond2:                                      ; preds = %while.body3, %while.end
  br i1 false, label %while.body3, label %while.end6

while.body3:                                      ; preds = %while.cond2
  %call5 = call noundef nonnull align 1 dereferenceable(1) ptr @_ZN4absl12lts_2023080212log_internal10NullStream14InternalStreamEv(ptr noundef nonnull align 1 dereferenceable(1) %ref.tmp4)
  br label %while.cond2, !llvm.loop !20

while.end6:                                       ; preds = %while.cond2
  %enum_types_ = getelementptr inbounds %"class.google::protobuf::Descriptor", ptr %this1, i32 0, i32 13
  %0 = load ptr, ptr %enum_types_, align 8
  %1 = load i32, ptr %index.addr, align 4
  %idx.ext = sext i32 %1 to i64
  %add.ptr = getelementptr inbounds %"class.google::protobuf::EnumDescriptor", ptr %0, i64 %idx.ext
  ret ptr %add.ptr
}

; Function Attrs: mustprogress nounwind uwtable
define linkonce_odr hidden noundef i32 @_ZNK6google8protobuf10Descriptor15enum_type_countEv(ptr noundef nonnull align 8 dereferenceable(152) %this) #5 comdat align 2 {
entry:
  %this.addr = alloca ptr, align 8
  store ptr %this, ptr %this.addr, align 8
  %this1 = load ptr, ptr %this.addr, align 8
  %enum_type_count_ = getelementptr inbounds %"class.google::protobuf::Descriptor", ptr %this1, i32 0, i32 21
  %0 = load i32, ptr %enum_type_count_, align 4
  ret i32 %0
}

; Function Attrs: mustprogress nounwind uwtable
define linkonce_odr hidden noundef ptr @_ZNK6google8protobuf10Descriptor11nested_typeEi(ptr noundef nonnull align 8 dereferenceable(152) %this, i32 noundef %index) #5 comdat align 2 {
entry:
  %this.addr = alloca ptr, align 8
  %index.addr = alloca i32, align 4
  %ref.tmp = alloca %"class.absl::lts_20230802::log_internal::NullStream", align 1
  %ref.tmp4 = alloca %"class.absl::lts_20230802::log_internal::NullStream", align 1
  store ptr %this, ptr %this.addr, align 8
  store i32 %index, ptr %index.addr, align 4
  %this1 = load ptr, ptr %this.addr, align 8
  br label %while.cond

while.cond:                                       ; preds = %while.body, %entry
  br i1 false, label %while.body, label %while.end

while.body:                                       ; preds = %while.cond
  %call = call noundef nonnull align 1 dereferenceable(1) ptr @_ZN4absl12lts_2023080212log_internal10NullStream14InternalStreamEv(ptr noundef nonnull align 1 dereferenceable(1) %ref.tmp)
  br label %while.cond, !llvm.loop !17

while.end:                                        ; preds = %while.cond
  br label %while.cond2

while.cond2:                                      ; preds = %while.body3, %while.end
  br i1 false, label %while.body3, label %while.end6

while.body3:                                      ; preds = %while.cond2
  %call5 = call noundef nonnull align 1 dereferenceable(1) ptr @_ZN4absl12lts_2023080212log_internal10NullStream14InternalStreamEv(ptr noundef nonnull align 1 dereferenceable(1) %ref.tmp4)
  br label %while.cond2, !llvm.loop !18

while.end6:                                       ; preds = %while.cond2
  %nested_types_ = getelementptr inbounds %"class.google::protobuf::Descriptor", ptr %this1, i32 0, i32 12
  %0 = load ptr, ptr %nested_types_, align 8
  %1 = load i32, ptr %index.addr, align 4
  %idx.ext = sext i32 %1 to i64
  %add.ptr = getelementptr inbounds %"class.google::protobuf::Descriptor", ptr %0, i64 %idx.ext
  ret ptr %add.ptr
}

; Function Attrs: mustprogress nounwind uwtable
define linkonce_odr hidden noundef i32 @_ZNK6google8protobuf10Descriptor17nested_type_countEv(ptr noundef nonnull align 8 dereferenceable(152) %this) #5 comdat align 2 {
entry:
  %this.addr = alloca ptr, align 8
  store ptr %this, ptr %this.addr, align 8
  %this1 = load ptr, ptr %this.addr, align 8
  %nested_type_count_ = getelementptr inbounds %"class.google::protobuf::Descriptor", ptr %this1, i32 0, i32 20
  %0 = load i32, ptr %nested_type_count_, align 8
  ret i32 %0
}

; Function Attrs: mustprogress nounwind uwtable
define linkonce_odr hidden noundef nonnull align 8 dereferenceable(32) ptr @_ZNK6google8protobuf10Descriptor4nameB5cxx11Ev(ptr noundef nonnull align 8 dereferenceable(152) %this) #5 comdat align 2 {
entry:
  %this.addr = alloca ptr, align 8
  store ptr %this, ptr %this.addr, align 8
  %this1 = load ptr, ptr %this.addr, align 8
  %all_names_ = getelementptr inbounds %"class.google::protobuf::Descriptor", ptr %this1, i32 0, i32 4
  %0 = load ptr, ptr %all_names_, align 8
  %arrayidx = getelementptr inbounds %"class.std::__cxx11::basic_string", ptr %0, i64 0
  ret ptr %arrayidx
}

; Function Attrs: mustprogress uwtable
define internal noundef zeroext i1 @_ZN6google8protobuf8compiler4java12_GLOBAL__N_130MessageHasConflictingClassNameEPKNS0_10DescriptorESt17basic_string_viewIcSt11char_traitsIcEENS2_12NameEqualityE(ptr noundef %message, i64 %classname.coerce0, ptr %classname.coerce1, i32 noundef %equality_mode) #4 {
entry:
  %retval = alloca i1, align 1
  %classname = alloca %"class.std::basic_string_view", align 8
  %message.addr = alloca ptr, align 8
  %equality_mode.addr = alloca i32, align 4
  %agg.tmp = alloca %"class.std::basic_string_view", align 8
  %agg.tmp2 = alloca %"class.std::basic_string_view", align 8
  %i = alloca i32, align 4
  %agg.tmp7 = alloca %"class.std::basic_string_view", align 8
  %i11 = alloca i32, align 4
  %agg.tmp16 = alloca %"class.std::basic_string_view", align 8
  %agg.tmp20 = alloca %"class.std::basic_string_view", align 8
  %0 = getelementptr inbounds { i64, ptr }, ptr %classname, i32 0, i32 0
  store i64 %classname.coerce0, ptr %0, align 8
  %1 = getelementptr inbounds { i64, ptr }, ptr %classname, i32 0, i32 1
  store ptr %classname.coerce1, ptr %1, align 8
  store ptr %message, ptr %message.addr, align 8
  store i32 %equality_mode, ptr %equality_mode.addr, align 4
  %2 = load ptr, ptr %message.addr, align 8
  %call = call noundef nonnull align 8 dereferenceable(32) ptr @_ZNK6google8protobuf10Descriptor4nameB5cxx11Ev(ptr noundef nonnull align 8 dereferenceable(152) %2)
  %call1 = call { i64, ptr } @_ZNKSt7__cxx1112basic_stringIcSt11char_traitsIcESaIcEEcvSt17basic_string_viewIcS2_EEv(ptr noundef nonnull align 8 dereferenceable(32) %call) #3
  %3 = getelementptr inbounds { i64, ptr }, ptr %agg.tmp, i32 0, i32 0
  %4 = extractvalue { i64, ptr } %call1, 0
  store i64 %4, ptr %3, align 8
  %5 = getelementptr inbounds { i64, ptr }, ptr %agg.tmp, i32 0, i32 1
  %6 = extractvalue { i64, ptr } %call1, 1
  store ptr %6, ptr %5, align 8
  call void @llvm.memcpy.p0.p0.i64(ptr align 8 %agg.tmp2, ptr align 8 %classname, i64 16, i1 false)
  %7 = getelementptr inbounds { i64, ptr }, ptr %agg.tmp, i32 0, i32 0
  %8 = load i64, ptr %7, align 8
  %9 = getelementptr inbounds { i64, ptr }, ptr %agg.tmp, i32 0, i32 1
  %10 = load ptr, ptr %9, align 8
  %11 = getelementptr inbounds { i64, ptr }, ptr %agg.tmp2, i32 0, i32 0
  %12 = load i64, ptr %11, align 8
  %13 = getelementptr inbounds { i64, ptr }, ptr %agg.tmp2, i32 0, i32 1
  %14 = load ptr, ptr %13, align 8
  %call3 = call noundef i32 @_ZN6google8protobuf8compiler4java12_GLOBAL__N_117CheckNameEqualityESt17basic_string_viewIcSt11char_traitsIcEES7_(i64 %8, ptr %10, i64 %12, ptr %14)
  %15 = load i32, ptr %equality_mode.addr, align 4
  %cmp = icmp eq i32 %call3, %15
  br i1 %cmp, label %if.then, label %if.end

if.then:                                          ; preds = %entry
  store i1 true, ptr %retval, align 1
  br label %return

if.end:                                           ; preds = %entry
  store i32 0, ptr %i, align 4
  br label %for.cond

for.cond:                                         ; preds = %for.inc, %if.end
  %16 = load i32, ptr %i, align 4
  %17 = load ptr, ptr %message.addr, align 8
  %call4 = call noundef i32 @_ZNK6google8protobuf10Descriptor17nested_type_countEv(ptr noundef nonnull align 8 dereferenceable(152) %17)
  %cmp5 = icmp slt i32 %16, %call4
  br i1 %cmp5, label %for.body, label %for.end

for.body:                                         ; preds = %for.cond
  %18 = load ptr, ptr %message.addr, align 8
  %19 = load i32, ptr %i, align 4
  %call6 = call noundef ptr @_ZNK6google8protobuf10Descriptor11nested_typeEi(ptr noundef nonnull align 8 dereferenceable(152) %18, i32 noundef %19)
  call void @llvm.memcpy.p0.p0.i64(ptr align 8 %agg.tmp7, ptr align 8 %classname, i64 16, i1 false)
  %20 = load i32, ptr %equality_mode.addr, align 4
  %21 = getelementptr inbounds { i64, ptr }, ptr %agg.tmp7, i32 0, i32 0
  %22 = load i64, ptr %21, align 8
  %23 = getelementptr inbounds { i64, ptr }, ptr %agg.tmp7, i32 0, i32 1
  %24 = load ptr, ptr %23, align 8
  %call8 = call noundef zeroext i1 @_ZN6google8protobuf8compiler4java12_GLOBAL__N_130MessageHasConflictingClassNameEPKNS0_10DescriptorESt17basic_string_viewIcSt11char_traitsIcEENS2_12NameEqualityE(ptr noundef %call6, i64 %22, ptr %24, i32 noundef %20)
  br i1 %call8, label %if.then9, label %if.end10

if.then9:                                         ; preds = %for.body
  store i1 true, ptr %retval, align 1
  br label %return

if.end10:                                         ; preds = %for.body
  br label %for.inc

for.inc:                                          ; preds = %if.end10
  %25 = load i32, ptr %i, align 4
  %inc = add nsw i32 %25, 1
  store i32 %inc, ptr %i, align 4
  br label %for.cond, !llvm.loop !12

for.end:                                          ; preds = %for.cond
  store i32 0, ptr %i11, align 4
  br label %for.cond12

for.cond12:                                       ; preds = %for.inc25, %for.end
  %26 = load i32, ptr %i11, align 4
  %27 = load ptr, ptr %message.addr, align 8
  %call13 = call noundef i32 @_ZNK6google8protobuf10Descriptor15enum_type_countEv(ptr noundef nonnull align 8 dereferenceable(152) %27)
  %cmp14 = icmp slt i32 %26, %call13
  br i1 %cmp14, label %for.body15, label %for.end27

for.body15:                                       ; preds = %for.cond12
  %28 = load ptr, ptr %message.addr, align 8
  %29 = load i32, ptr %i11, align 4
  %call17 = call noundef ptr @_ZNK6google8protobuf10Descriptor9enum_typeEi(ptr noundef nonnull align 8 dereferenceable(152) %28, i32 noundef %29)
  %call18 = call noundef nonnull align 8 dereferenceable(32) ptr @_ZNK6google8protobuf14EnumDescriptor4nameB5cxx11Ev(ptr noundef nonnull align 8 dereferenceable(88) %call17)
  %call19 = call { i64, ptr } @_ZNKSt7__cxx1112basic_stringIcSt11char_traitsIcESaIcEEcvSt17basic_string_viewIcS2_EEv(ptr noundef nonnull align 8 dereferenceable(32) %call18) #3
  %30 = getelementptr inbounds { i64, ptr }, ptr %agg.tmp16, i32 0, i32 0
  %31 = extractvalue { i64, ptr } %call19, 0
  store i64 %31, ptr %30, align 8
  %32 = getelementptr inbounds { i64, ptr }, ptr %agg.tmp16, i32 0, i32 1
  %33 = extractvalue { i64, ptr } %call19, 1
  store ptr %33, ptr %32, align 8
  call void @llvm.memcpy.p0.p0.i64(ptr align 8 %agg.tmp20, ptr align 8 %classname, i64 16, i1 false)
  %34 = getelementptr inbounds { i64, ptr }, ptr %agg.tmp16, i32 0, i32 0
  %35 = load i64, ptr %34, align 8
  %36 = getelementptr inbounds { i64, ptr }, ptr %agg.tmp16, i32 0, i32 1
  %37 = load ptr, ptr %36, align 8
  %38 = getelementptr inbounds { i64, ptr }, ptr %agg.tmp20, i32 0, i32 0
  %39 = load i64, ptr %38, align 8
  %40 = getelementptr inbounds { i64, ptr }, ptr %agg.tmp20, i32 0, i32 1
  %41 = load ptr, ptr %40, align 8
  %call21 = call noundef i32 @_ZN6google8protobuf8compiler4java12_GLOBAL__N_117CheckNameEqualityESt17basic_string_viewIcSt11char_traitsIcEES7_(i64 %35, ptr %37, i64 %39, ptr %41)
  %42 = load i32, ptr %equality_mode.addr, align 4
  %cmp22 = icmp eq i32 %call21, %42
  br i1 %cmp22, label %if.then23, label %if.end24

if.then23:                                        ; preds = %for.body15
  store i1 true, ptr %retval, align 1
  br label %return

if.end24:                                         ; preds = %for.body15
  br label %for.inc25

for.inc25:                                        ; preds = %if.end24
  %43 = load i32, ptr %i11, align 4
  %inc26 = add nsw i32 %43, 1
  store i32 %inc26, ptr %i11, align 4
  br label %for.cond12, !llvm.loop !13

for.end27:                                        ; preds = %for.cond12
  store i1 false, ptr %retval, align 1
  br label %return

return:                                           ; preds = %for.end27, %if.then23, %if.then9, %if.then
  %44 = load i1, ptr %retval, align 1
  ret i1 %44
}