; Function Attrs: mustprogress uwtable
define internal fastcc noundef zeroext i1 @_ZN6google8protobuf8compiler4java12_GLOBAL__N_130MessageHasConflictingClassNameEPKNS0_10DescriptorESt17basic_string_viewIcSt11char_traitsIcEENS2_12NameEqualityE(ptr noundef readonly captures(none) %message, i64 %classname.coerce0, ptr %classname.coerce1, i32 noundef %equality_mode) unnamed_addr #3 {
entry:
  %all_names_.i = getelementptr inbounds nuw i8, ptr %message, i64 8
  %0 = load ptr, ptr %all_names_.i, align 8
  %call1 = tail call { i64, ptr } @_ZNKSt7__cxx1112basic_stringIcSt11char_traitsIcESaIcEEcvSt17basic_string_viewIcS2_EEv(ptr noundef nonnull align 8 dereferenceable(32) %0) #18
  %1 = extractvalue { i64, ptr } %call1, 0
  %2 = extractvalue { i64, ptr } %call1, 1
  %call3 = tail call fastcc noundef i32 @_ZN6google8protobuf8compiler4java12_GLOBAL__N_117CheckNameEqualityESt17basic_string_viewIcSt11char_traitsIcEES7_(i64 %1, ptr %2, i64 %classname.coerce0, ptr %classname.coerce1)
  %cmp = icmp eq i32 %call3, %equality_mode
  br i1 %cmp, label %return, label %for.cond.preheader

for.cond.preheader:                               ; preds = %entry
  %nested_type_count_.i = getelementptr inbounds nuw i8, ptr %message, i64 128
  %3 = load i32, ptr %nested_type_count_.i, align 8
  %cmp517 = icmp sgt i32 %3, 0
  br i1 %cmp517, label %for.body.lr.ph, label %for.cond12.preheader

for.body.lr.ph:                                   ; preds = %for.cond.preheader
  %nested_types_.i = getelementptr inbounds nuw i8, ptr %message, i64 72
  br label %for.body

for.cond:                                         ; preds = %for.body
  %indvars.iv.next = add nuw nsw i64 %indvars.iv, 1
  %4 = load i32, ptr %nested_type_count_.i, align 8
  %5 = sext i32 %4 to i64
  %cmp5 = icmp slt i64 %indvars.iv.next, %5
  br i1 %cmp5, label %for.body, label %for.cond12.preheader, !llvm.loop !8

for.cond12.preheader:                             ; preds = %for.cond, %for.cond.preheader
  %enum_types_.i = getelementptr inbounds nuw i8, ptr %message, i64 80
  %enum_type_count_.i = getelementptr inbounds nuw i8, ptr %message, i64 132
  %6 = load i32, ptr %enum_type_count_.i, align 4
  %cmp1419 = icmp sgt i32 %6, 0
  br i1 %cmp1419, label %for.body15, label %return

for.body:                                         ; preds = %for.body.lr.ph, %for.cond
  %indvars.iv = phi i64 [ 0, %for.body.lr.ph ], [ %indvars.iv.next, %for.cond ]
  %7 = load ptr, ptr %nested_types_.i, align 8
  %add.ptr.i = getelementptr inbounds nuw %"class.google::protobuf::Descriptor", ptr %7, i64 %indvars.iv
  %call8 = tail call fastcc noundef zeroext i1 @_ZN6google8protobuf8compiler4java12_GLOBAL__N_130MessageHasConflictingClassNameEPKNS0_10DescriptorESt17basic_string_viewIcSt11char_traitsIcEENS2_12NameEqualityE(ptr noundef %add.ptr.i, i64 %classname.coerce0, ptr %classname.coerce1, i32 noundef %equality_mode)
  br i1 %call8, label %return, label %for.cond

for.cond12:                                       ; preds = %for.body15
  %indvars.iv.next25 = add nuw nsw i64 %indvars.iv24, 1
  %8 = load i32, ptr %enum_type_count_.i, align 4
  %9 = sext i32 %8 to i64
  %cmp14 = icmp slt i64 %indvars.iv.next25, %9
  br i1 %cmp14, label %for.body15, label %return, !llvm.loop !9

for.body15:                                       ; preds = %for.cond12.preheader, %for.cond12
  %indvars.iv24 = phi i64 [ %indvars.iv.next25, %for.cond12 ], [ 0, %for.cond12.preheader ]
  %10 = load ptr, ptr %enum_types_.i, align 8
  %all_names_.i15 = getelementptr inbounds nuw %"class.google::protobuf::EnumDescriptor", ptr %10, i64 %indvars.iv24, i32 4
  %11 = load ptr, ptr %all_names_.i15, align 8
  %call19 = tail call { i64, ptr } @_ZNKSt7__cxx1112basic_stringIcSt11char_traitsIcESaIcEEcvSt17basic_string_viewIcS2_EEv(ptr noundef nonnull align 8 dereferenceable(32) %11) #18
  %12 = extractvalue { i64, ptr } %call19, 0
  %13 = extractvalue { i64, ptr } %call19, 1
  %call21 = tail call fastcc noundef i32 @_ZN6google8protobuf8compiler4java12_GLOBAL__N_117CheckNameEqualityESt17basic_string_viewIcSt11char_traitsIcEES7_(i64 %12, ptr %13, i64 %classname.coerce0, ptr %classname.coerce1)
  %cmp22 = icmp eq i32 %call21, %equality_mode
  br i1 %cmp22, label %return, label %for.cond12

return:                                           ; preds = %for.body, %for.body15, %for.cond12, %for.cond12.preheader, %entry
  %retval.0 = phi i1 [ true, %entry ], [ false, %for.cond12.preheader ], [ %cmp22, %for.cond12 ], [ %cmp22, %for.body15 ], [ true, %for.body ]
  ret i1 %retval.0
}